target datalayout = "e-m:e-p270:32:32-p271:32:32-p272:64:64-i64:64-i128:128-f80:128-n8:16:32:64-S128"
target triple = "x86_64-pc-linux-gnu"

%struct.Gia_MmFixed_t_ = type { i32, i32, i32, i32, ptr, i32, i32, i32, ptr, i32, i32 }

; Function Attrs: nounwind uwtable
define ptr @Gia_MmFixedEntryFetch(ptr noundef %0) #0 {
  %2 = alloca ptr, align 8
  %3 = alloca ptr, align 8
  %4 = alloca i32, align 4
  store ptr %0, ptr %2, align 8, !tbaa !7
  call void @llvm.lifetime.start.p0(i64 8, ptr %3) #7
  call void @llvm.lifetime.start.p0(i64 4, ptr %4) #7
  %5 = load ptr, ptr %2, align 8, !tbaa !7
  %6 = getelementptr inbounds nuw %struct.Gia_MmFixed_t_, ptr %5, i32 0, i32 2
  %7 = load i32, ptr %6, align 8, !tbaa !15
  %8 = load ptr, ptr %2, align 8, !tbaa !7
  %9 = getelementptr inbounds nuw %struct.Gia_MmFixed_t_, ptr %8, i32 0, i32 1
  %10 = load i32, ptr %9, align 4, !tbaa !14
  %11 = icmp eq i32 %7, %10
  br i1 %11, label %12, label %121

12:                                               ; preds = %1
  %13 = load ptr, ptr %2, align 8, !tbaa !7
  %14 = getelementptr inbounds nuw %struct.Gia_MmFixed_t_, ptr %13, i32 0, i32 7
  %15 = load i32, ptr %14, align 8, !tbaa !19
  %16 = load ptr, ptr %2, align 8, !tbaa !7
  %17 = getelementptr inbounds nuw %struct.Gia_MmFixed_t_, ptr %16, i32 0, i32 6
  %18 = load i32, ptr %17, align 4, !tbaa !18
  %19 = icmp eq i32 %15, %18
  br i1 %19, label %20, label %50

20:                                               ; preds = %12
  %21 = load ptr, ptr %2, align 8, !tbaa !7
  %22 = getelementptr inbounds nuw %struct.Gia_MmFixed_t_, ptr %21, i32 0, i32 6
  %23 = load i32, ptr %22, align 4, !tbaa !18
  %24 = mul nsw i32 %23, 2
  store i32 %24, ptr %22, align 4, !tbaa !18
  %25 = load ptr, ptr %2, align 8, !tbaa !7
  %26 = getelementptr inbounds nuw %struct.Gia_MmFixed_t_, ptr %25, i32 0, i32 8
  %27 = load ptr, ptr %26, align 8, !tbaa !20
  %28 = icmp ne ptr %27, null
  br i1 %28, label %29, label %39

29:                                               ; preds = %20
  %30 = load ptr, ptr %2, align 8, !tbaa !7
  %31 = getelementptr inbounds nuw %struct.Gia_MmFixed_t_, ptr %30, i32 0, i32 8
  %32 = load ptr, ptr %31, align 8, !tbaa !20
  %33 = load ptr, ptr %2, align 8, !tbaa !7
  %34 = getelementptr inbounds nuw %struct.Gia_MmFixed_t_, ptr %33, i32 0, i32 6
  %35 = load i32, ptr %34, align 4, !tbaa !18
  %36 = sext i32 %35 to i64
  %37 = mul i64 8, %36
  %38 = call ptr @realloc(ptr noundef %32, i64 noundef %37) #9
  br label %46

39:                                               ; preds = %20
  %40 = load ptr, ptr %2, align 8, !tbaa !7
  %41 = getelementptr inbounds nuw %struct.Gia_MmFixed_t_, ptr %40, i32 0, i32 6
  %42 = load i32, ptr %41, align 4, !tbaa !18
  %43 = sext i32 %42 to i64
  %44 = mul i64 8, %43
  %45 = call noalias ptr @malloc(i64 noundef %44) #8
  br label %46

46:                                               ; preds = %39, %29
  %47 = phi ptr [ %38, %29 ], [ %45, %39 ]
  %48 = load ptr, ptr %2, align 8, !tbaa !7
  %49 = getelementptr inbounds nuw %struct.Gia_MmFixed_t_, ptr %48, i32 0, i32 8
  store ptr %47, ptr %49, align 8, !tbaa !20
  br label %50

50:                                               ; preds = %46, %12
  %51 = load ptr, ptr %2, align 8, !tbaa !7
  %52 = getelementptr inbounds nuw %struct.Gia_MmFixed_t_, ptr %51, i32 0, i32 0
  %53 = load i32, ptr %52, align 8, !tbaa !10
  %54 = load ptr, ptr %2, align 8, !tbaa !7
  %55 = getelementptr inbounds nuw %struct.Gia_MmFixed_t_, ptr %54, i32 0, i32 5
  %56 = load i32, ptr %55, align 8, !tbaa !17
  %57 = mul nsw i32 %53, %56
  %58 = sext i32 %57 to i64
  %59 = mul i64 1, %58
  %60 = call noalias ptr @malloc(i64 noundef %59) #8
  %61 = load ptr, ptr %2, align 8, !tbaa !7
  %62 = getelementptr inbounds nuw %struct.Gia_MmFixed_t_, ptr %61, i32 0, i32 4
  store ptr %60, ptr %62, align 8, !tbaa !16
  %63 = load ptr, ptr %2, align 8, !tbaa !7
  %64 = getelementptr inbounds nuw %struct.Gia_MmFixed_t_, ptr %63, i32 0, i32 0
  %65 = load i32, ptr %64, align 8, !tbaa !10
  %66 = load ptr, ptr %2, align 8, !tbaa !7
  %67 = getelementptr inbounds nuw %struct.Gia_MmFixed_t_, ptr %66, i32 0, i32 5
  %68 = load i32, ptr %67, align 8, !tbaa !17
  %69 = mul nsw i32 %65, %68
  %70 = load ptr, ptr %2, align 8, !tbaa !7
  %71 = getelementptr inbounds nuw %struct.Gia_MmFixed_t_, ptr %70, i32 0, i32 10
  %72 = load i32, ptr %71, align 4, !tbaa !22
  %73 = add nsw i32 %72, %69
  store i32 %73, ptr %71, align 4, !tbaa !22
  %74 = load ptr, ptr %2, align 8, !tbaa !7
  %75 = getelementptr inbounds nuw %struct.Gia_MmFixed_t_, ptr %74, i32 0, i32 4
  %76 = load ptr, ptr %75, align 8, !tbaa !16
  store ptr %76, ptr %3, align 8, !tbaa !24
  store i32 1, ptr %4, align 4, !tbaa !3
  br label %77

77:                                               ; preds = %97, %50
  %78 = load i32, ptr %4, align 4, !tbaa !3
  %79 = load ptr, ptr %2, align 8, !tbaa !7
  %80 = getelementptr inbounds nuw %struct.Gia_MmFixed_t_, ptr %79, i32 0, i32 5
  %81 = load i32, ptr %80, align 8, !tbaa !17
  %82 = icmp slt i32 %78, %81
  br i1 %82, label %83, label %100

83:                                               ; preds = %77
  %84 = load ptr, ptr %3, align 8, !tbaa !24
  %85 = load ptr, ptr %2, align 8, !tbaa !7
  %86 = getelementptr inbounds nuw %struct.Gia_MmFixed_t_, ptr %85, i32 0, i32 0
  %87 = load i32, ptr %86, align 8, !tbaa !10
  %88 = sext i32 %87 to i64
  %89 = getelementptr inbounds i8, ptr %84, i64 %88
  %90 = load ptr, ptr %3, align 8, !tbaa !24
  store ptr %89, ptr %90, align 8, !tbaa !24
  %91 = load ptr, ptr %2, align 8, !tbaa !7
  %92 = getelementptr inbounds nuw %struct.Gia_MmFixed_t_, ptr %91, i32 0, i32 0
  %93 = load i32, ptr %92, align 8, !tbaa !10
  %94 = load ptr, ptr %3, align 8, !tbaa !24
  %95 = sext i32 %93 to i64
  %96 = getelementptr inbounds i8, ptr %94, i64 %95
  store ptr %96, ptr %3, align 8, !tbaa !24
  br label %97

97:                                               ; preds = %83
  %98 = load i32, ptr %4, align 4, !tbaa !3
  %99 = add nsw i32 %98, 1
  store i32 %99, ptr %4, align 4, !tbaa !3
  br label %77, !llvm.loop !27

100:                                              ; preds = %77
  %101 = load ptr, ptr %3, align 8, !tbaa !24
  store ptr null, ptr %101, align 8, !tbaa !24
  %102 = load ptr, ptr %2, align 8, !tbaa !7
  %103 = getelementptr inbounds nuw %struct.Gia_MmFixed_t_, ptr %102, i32 0, i32 4
  %104 = load ptr, ptr %103, align 8, !tbaa !16
  %105 = load ptr, ptr %2, align 8, !tbaa !7
  %106 = getelementptr inbounds nuw %struct.Gia_MmFixed_t_, ptr %105, i32 0, i32 8
  %107 = load ptr, ptr %106, align 8, !tbaa !20
  %108 = load ptr, ptr %2, align 8, !tbaa !7
  %109 = getelementptr inbounds nuw %struct.Gia_MmFixed_t_, ptr %108, i32 0, i32 7
  %110 = load i32, ptr %109, align 8, !tbaa !19
  %111 = add nsw i32 %110, 1
  store i32 %111, ptr %109, align 8, !tbaa !19
  %112 = sext i32 %110 to i64
  %113 = getelementptr inbounds ptr, ptr %107, i64 %112
  store ptr %104, ptr %113, align 8, !tbaa !24
  %114 = load ptr, ptr %2, align 8, !tbaa !7
  %115 = getelementptr inbounds nuw %struct.Gia_MmFixed_t_, ptr %114, i32 0, i32 5
  %116 = load i32, ptr %115, align 8, !tbaa !17
  %117 = load ptr, ptr %2, align 8, !tbaa !7
  %118 = getelementptr inbounds nuw %struct.Gia_MmFixed_t_, ptr %117, i32 0, i32 1
  %119 = load i32, ptr %118, align 4, !tbaa !14
  %120 = add nsw i32 %119, %116
  store i32 %120, ptr %118, align 4, !tbaa !14
  br label %121

121:                                              ; preds = %100, %1
  %122 = load ptr, ptr %2, align 8, !tbaa !7
  %123 = getelementptr inbounds nuw %struct.Gia_MmFixed_t_, ptr %122, i32 0, i32 2
  %124 = load i32, ptr %123, align 8, !tbaa !15
  %125 = add nsw i32 %124, 1
  store i32 %125, ptr %123, align 8, !tbaa !15
  %126 = load ptr, ptr %2, align 8, !tbaa !7
  %127 = getelementptr inbounds nuw %struct.Gia_MmFixed_t_, ptr %126, i32 0, i32 3
  %128 = load i32, ptr %127, align 4, !tbaa !23
  %129 = load ptr, ptr %2, align 8, !tbaa !7
  %130 = getelementptr inbounds nuw %struct.Gia_MmFixed_t_, ptr %129, i32 0, i32 2
  %131 = load i32, ptr %130, align 8, !tbaa !15
  %132 = icmp slt i32 %128, %131
  br i1 %132, label %133, label %139

133:                                              ; preds = %121
  %134 = load ptr, ptr %2, align 8, !tbaa !7
  %135 = getelementptr inbounds nuw %struct.Gia_MmFixed_t_, ptr %134, i32 0, i32 2
  %136 = load i32, ptr %135, align 8, !tbaa !15
  %137 = load ptr, ptr %2, align 8, !tbaa !7
  %138 = getelementptr inbounds nuw %struct.Gia_MmFixed_t_, ptr %137, i32 0, i32 3
  store i32 %136, ptr %138, align 4, !tbaa !23
  br label %139

139:                                              ; preds = %133, %121
  %140 = load ptr, ptr %2, align 8, !tbaa !7
  %141 = getelementptr inbounds nuw %struct.Gia_MmFixed_t_, ptr %140, i32 0, i32 4
  %142 = load ptr, ptr %141, align 8, !tbaa !16
  store ptr %142, ptr %3, align 8, !tbaa !24
  %143 = load ptr, ptr %3, align 8, !tbaa !24
  %144 = load ptr, ptr %143, align 8, !tbaa !24
  %145 = load ptr, ptr %2, align 8, !tbaa !7
  %146 = getelementptr inbounds nuw %struct.Gia_MmFixed_t_, ptr %145, i32 0, i32 4
  store ptr %144, ptr %146, align 8, !tbaa !16
  %147 = load ptr, ptr %3, align 8, !tbaa !24
  call void @llvm.lifetime.end.p0(i64 4, ptr %4) #7
  call void @llvm.lifetime.end.p0(i64 8, ptr %3) #7
  ret ptr %147
}