; Function Attrs: nounwind uwtable
define noundef ptr @Gia_MmFixedEntryFetch(ptr noundef captures(none) %0) local_unnamed_addr #2 {
  %2 = getelementptr inbounds nuw i8, ptr %0, i64 8
  %3 = load i32, ptr %2, align 8, !tbaa !15
  %4 = getelementptr inbounds nuw i8, ptr %0, i64 4
  %5 = load i32, ptr %4, align 4, !tbaa !21
  %6 = icmp eq i32 %3, %5
  br i1 %6, label %7, label %49

7:                                                ; preds = %1
  %8 = getelementptr inbounds nuw i8, ptr %0, i64 32
  %9 = load i32, ptr %8, align 8, !tbaa !14
  %10 = getelementptr inbounds nuw i8, ptr %0, i64 28
  %11 = load i32, ptr %10, align 4, !tbaa !12
  %12 = icmp eq i32 %9, %11
  br i1 %12, label %13, label %25

13:                                               ; preds = %7
  %14 = shl nsw i32 %9, 1
  store i32 %14, ptr %10, align 4, !tbaa !12
  %15 = getelementptr inbounds nuw i8, ptr %0, i64 40
  %16 = load ptr, ptr %15, align 8, !tbaa !13
  %.not = icmp eq ptr %16, null
  %17 = sext i32 %14 to i64
  %18 = shl nsw i64 %17, 3
  br i1 %.not, label %21, label %19

19:                                               ; preds = %13
  %20 = tail call ptr @realloc(ptr noundef nonnull %16, i64 noundef %18) #16
  br label %23

21:                                               ; preds = %13
  %22 = tail call noalias ptr @malloc(i64 noundef %18) #14
  br label %23

23:                                               ; preds = %21, %19
  %24 = phi ptr [ %20, %19 ], [ %22, %21 ]
  store ptr %24, ptr %15, align 8, !tbaa !13
  br label %25

25:                                               ; preds = %23, %7
  %26 = load i32, ptr %0, align 8, !tbaa !3
  %27 = getelementptr inbounds nuw i8, ptr %0, i64 24
  %28 = load i32, ptr %27, align 8, !tbaa !11
  %29 = mul nsw i32 %28, %26
  %30 = sext i32 %29 to i64
  %31 = tail call noalias ptr @malloc(i64 noundef %30) #14
  %32 = getelementptr inbounds nuw i8, ptr %0, i64 16
  store ptr %31, ptr %32, align 8, !tbaa !22
  %33 = getelementptr inbounds nuw i8, ptr %0, i64 52
  %34 = load i32, ptr %33, align 4, !tbaa !17
  %35 = add nsw i32 %34, %29
  store i32 %35, ptr %33, align 4, !tbaa !17
  %36 = icmp sgt i32 %28, 1
  br i1 %36, label %.lr.ph, label %._crit_edge

.lr.ph:                                           ; preds = %25
  %37 = sext i32 %26 to i64
  br label %38

38:                                               ; preds = %.lr.ph, %38
  %.045 = phi i32 [ 1, %.lr.ph ], [ %40, %38 ]
  %.03944 = phi ptr [ %31, %.lr.ph ], [ %39, %38 ]
  %39 = getelementptr inbounds i8, ptr %.03944, i64 %37
  store ptr %39, ptr %.03944, align 8, !tbaa !18
  %40 = add nuw nsw i32 %.045, 1
  %exitcond.not = icmp eq i32 %40, %28
  br i1 %exitcond.not, label %._crit_edge, label %38, !llvm.loop !23

._crit_edge:                                      ; preds = %38, %25
  %.039.lcssa = phi ptr [ %31, %25 ], [ %39, %38 ]
  store ptr null, ptr %.039.lcssa, align 8, !tbaa !18
  %41 = getelementptr inbounds nuw i8, ptr %0, i64 40
  %42 = load ptr, ptr %41, align 8, !tbaa !13
  %43 = load i32, ptr %8, align 8, !tbaa !14
  %44 = add nsw i32 %43, 1
  store i32 %44, ptr %8, align 8, !tbaa !14
  %45 = sext i32 %43 to i64
  %46 = getelementptr inbounds ptr, ptr %42, i64 %45
  store ptr %31, ptr %46, align 8, !tbaa !18
  %47 = load i32, ptr %4, align 4, !tbaa !21
  %48 = add nsw i32 %47, %28
  store i32 %48, ptr %4, align 4, !tbaa !21
  %.pre = load i32, ptr %2, align 8, !tbaa !15
  br label %49

49:                                               ; preds = %._crit_edge, %1
  %50 = phi i32 [ %.pre, %._crit_edge ], [ %3, %1 ]
  %51 = add nsw i32 %50, 1
  store i32 %51, ptr %2, align 8, !tbaa !15
  %52 = getelementptr inbounds nuw i8, ptr %0, i64 12
  %53 = load i32, ptr %52, align 4, !tbaa !16
  %.not43 = icmp sgt i32 %53, %50
  br i1 %.not43, label %55, label %54

54:                                               ; preds = %49
  store i32 %51, ptr %52, align 4, !tbaa !16
  br label %55

55:                                               ; preds = %54, %49
  %56 = getelementptr inbounds nuw i8, ptr %0, i64 16
  %57 = load ptr, ptr %56, align 8, !tbaa !22
  %58 = load ptr, ptr %57, align 8, !tbaa !18
  store ptr %58, ptr %56, align 8, !tbaa !22
  ret ptr %57
}